#include <math.h>
#include <stdio.h>
#include <stdlib.h>
#include <string.h>

int main () {
     
    int in,k,m,sum=0;                    //m??????????321?????????1 
    scanf("%d",&in);
    if (in==100) printf("001");
    else {k=in; 
         for(;k>0;){
            m=k%10;
            k=k/10;
            sum=sum*10+m;
            }
         printf("%d",sum);}        
         return 0;
               }
            
        
        
        
